; Function Attrs: nounwind uwtable
define dso_local i32 @uv_try_write(ptr noundef readonly captures(none) %0, ptr noundef %1, i32 noundef %2) local_unnamed_addr #0 {
  %4 = getelementptr inbounds nuw i8, ptr %0, i64 120
  %5 = load ptr, ptr %4, align 8
  %.not.i = icmp eq ptr %5, null
  br i1 %.not.i, label %6, label %uv_try_write2.exit

6:                                                ; preds = %3
  %7 = getelementptr inbounds nuw i8, ptr %0, i64 96
  %8 = load i64, ptr %7, align 8
  %.not11.i = icmp eq i64 %8, 0
  br i1 %.not11.i, label %9, label %uv_try_write2.exit

9:                                                ; preds = %6
  %10 = getelementptr inbounds nuw i8, ptr %0, i64 184
  %11 = load i32, ptr %10, align 8
  %12 = icmp slt i32 %11, 0
  br i1 %12, label %uv_try_write2.exit, label %13

13:                                               ; preds = %9
  %14 = getelementptr inbounds nuw i8, ptr %0, i64 88
  %15 = load i32, ptr %14, align 8
  %16 = and i32 %15, 32768
  %.not.i.i = icmp eq i32 %16, 0
  br i1 %.not.i.i, label %uv_try_write2.exit, label %uv__check_before_write.exit.i

uv__check_before_write.exit.i:                    ; preds = %13
  %17 = tail call fastcc i32 @uv__try_write(ptr noundef nonnull readonly %0, ptr noundef %1, i32 noundef %2, ptr noundef null)
  br label %uv_try_write2.exit

uv_try_write2.exit:                               ; preds = %3, %6, %9, %13, %uv__check_before_write.exit.i
  %.0.i = phi i32 [ %17, %uv__check_before_write.exit.i ], [ -11, %6 ], [ -11, %3 ], [ -32, %13 ], [ -9, %9 ]
  ret i32 %.0.i
}